Certificate:
    Data:
        Version: 3 (0x2)
        Serial Number: 1 (0x1)
    Signature Algorithm: sha256WithRSAEncryption
        Issuer: CN=devcert
        Validity
            Not Before: May  7 16:07:42 2020 GMT
            Not After : Aug 10 16:07:42 2022 GMT
        Subject: CN=localhost
        Subject Public Key Info:
            Public Key Algorithm: rsaEncryption
                Public-Key: (2048 bit)
                Modulus:
                    00:d0:14:c6:74:80:08:44:90:0f:3b:c7:83:aa:4a:
                    90:8a:c2:9b:3d:c8:36:12:f7:81:ab:c1:cf:b5:9c:
                    58:29:e7:b6:11:7e:de:fa:37:21:7a:0d:29:64:12:
                    b8:09:0a:68:ba:61:8a:b5:2c:7e:30:d1:fb:73:fa:
                    cc:48:06:ab:09:7d:f8:45:a4:63:80:c5:5b:55:79:
                    df:67:02:25:98:c8:22:2d:44:c8:67:1f:b6:d2:99:
                    3e:db:5a:66:9e:98:67:00:5b:c9:ab:f9:99:f3:f9:
                    77:91:2b:ad:36:4a:aa:57:f8:d0:37:68:2a:b5:d6:
                    62:d0:e7:62:19:55:46:20:da:05:aa:50:67:46:9e:
                    33:53:50:ae:31:43:7c:b7:a7:82:0d:0a:0e:11:c3:
                    3c:da:9e:18:3f:a6:2b:1a:9f:8c:f0:41:6d:70:90:
                    14:99:c3:1f:0c:ee:99:27:aa:60:aa:97:28:8d:ee:
                    fa:ac:65:21:0e:c1:50:5f:a9:c6:cc:74:ea:27:4d:
                    37:9c:75:5f:c0:2a:ca:37:e3:66:cf:43:e8:5d:ab:
                    e8:34:f6:0c:3b:cf:34:59:76:24:99:31:fb:e5:a0:
                    8a:5e:e2:a8:8e:7b:11:15:6b:4a:10:3c:6f:a4:9f:
                    d1:dc:68:c4:9f:95:64:7b:05:30:22:e5:fb:bb:dc:
                    3b:b3
                Exponent: 65537 (0x10001)
        X509v3 extensions:
            X509v3 Basic Constraints: critical
                CA:FALSE
            X509v3 Subject Key Identifier: 
                75:8F:97:00:B8:B3:9F:8D:C4:F2:A9:0C:55:FF:1D:7C:50:9F:5A:53
            X509v3 Authority Key Identifier: 
                keyid:70:A0:CA:29:44:E5:31:63:E4:78:D7:7C:DD:F6:D8:29:11:E9:38:19
                DirName:/CN=devcert
                serial:BE:64:D5:8A:67:2C:0A:42

            X509v3 Key Usage: critical
                Digital Signature, Key Encipherment
            X509v3 Extended Key Usage: 
                TLS Web Server Authentication
            X509v3 Subject Alternative Name: 
                DNS:localhost, DNS:*.localhost
    Signature Algorithm: sha256WithRSAEncryption
         bd:a8:5d:c9:c1:1a:df:10:c6:61:73:df:9f:b3:6a:79:7f:ab:
         8c:d4:d8:3e:af:a0:c9:bb:5c:c4:2a:6d:29:d8:23:79:6f:82:
         ff:10:2e:81:d1:fb:4a:68:3f:c3:e5:a5:ad:b4:1b:6b:c5:fc:
         7a:93:00:ec:ee:7a:a8:86:d2:1d:50:a6:1f:57:8f:2f:83:16:
         17:86:11:81:37:5e:45:8f:c9:ee:11:fb:13:bb:9c:2f:01:8c:
         0e:31:7d:6d:ee:70:cf:3f:5d:81:a2:1d:21:1e:f6:69:28:fd:
         68:f2:16:ca:41:53:b2:c0:b5:1b:9a:13:64:a3:2f:51:e9:13:
         4f:58:3e:cc:81:69:d3:81:56:35:8f:f7:0e:93:33:dc:dc:cc:
         af:f2:c8:94:cc:f2:d1:6f:a1:8e:50:e8:ff:e6:23:e0:cb:ec:
         26:48:34:e3:6f:6f:9b:d6:16:bd:3f:8e:64:48:1e:1b:bb:e3:
         a7:f5:36:0c:07:72:fb:a4:aa:b0:80:da:1c:46:03:03:87:5a:
         5f:6e:99:47:63:a6:53:20:44:09:4e:3a:ee:c1:da:a9:91:fe:
         73:40:d2:2b:7f:84:d6:f8:ee:d4:ca:45:39:a7:b9:b9:cd:ef:
         7a:a1:e1:64:b2:64:d9:3d:de:c1:74:f5:a7:d1:f6:82:bd:7f:
         0b:97:2c:24
-----BEGIN CERTIFICATE-----
MIIDXjCCAkagAwIBAgIBATANBgkqhkiG9w0BAQsFADASMRAwDgYDVQQDDAdkZXZj
ZXJ0MB4XDTIwMDUwNzE2MDc0MloXDTIyMDgxMDE2MDc0MlowFDESMBAGA1UEAwwJ
bG9jYWxob3N0MIIBIjANBgkqhkiG9w0BAQEFAAOCAQ8AMIIBCgKCAQEA0BTGdIAI
RJAPO8eDqkqQisKbPcg2EveBq8HPtZxYKee2EX7e+jcheg0pZBK4CQpoumGKtSx+
MNH7c/rMSAarCX34RaRjgMVbVXnfZwIlmMgiLUTIZx+20pk+21pmnphnAFvJq/mZ
8/l3kSutNkqqV/jQN2gqtdZi0OdiGVVGINoFqlBnRp4zU1CuMUN8t6eCDQoOEcM8
2p4YP6YrGp+M8EFtcJAUmcMfDO6ZJ6pgqpcoje76rGUhDsFQX6nGzHTqJ003nHVf
wCrKN+Nmz0PoXavoNPYMO880WXYkmTH75aCKXuKojnsRFWtKEDxvpJ/R3GjEn5Vk
ewUwIuX7u9w7swIDAQABo4G8MIG5MAwGA1UdEwEB/wQCMAAwHQYDVR0OBBYEFHWP
lwC4s5+NxPKpDFX/HXxQn1pTMEIGA1UdIwQ7MDmAFHCgyilE5TFj5HjXfN322CkR
6TgZoRakFDASMRAwDgYDVQQDDAdkZXZjZXJ0ggkAvmTVimcsCkIwDgYDVR0PAQH/
BAQDAgWgMBMGA1UdJQQMMAoGCCsGAQUFBwMBMCEGA1UdEQQaMBiCCWxvY2FsaG9z
dIILKi5sb2NhbGhvc3QwDQYJKoZIhvcNAQELBQADggEBAL2oXcnBGt8QxmFz35+z
anl/q4zU2D6voMm7XMQqbSnYI3lvgv8QLoHR+0poP8Plpa20G2vF/HqTAOzueqiG
0h1Qph9Xjy+DFheGEYE3XkWPye4R+xO7nC8BjA4xfW3ucM8/XYGiHSEe9mko/Wjy
FspBU7LAtRuaE2SjL1HpE09YPsyBadOBVjWP9w6TM9zczK/yyJTM8tFvoY5Q6P/m
I+DL7CZINONvb5vWFr0/jmRIHhu746f1NgwHcvukqrCA2hxGAwOHWl9umUdjplMg
RAlOOu7B2qmR/nNA0it/hNb47tTKRTmnubnN73qh4WSyZNk93sF09afR9oK9fwuX
LCQ=
-----END CERTIFICATE-----
